target datalayout = "e-m:e-p270:32:32-p271:32:32-p272:64:64-i64:64-i128:128-f80:128-n8:16:32:64-S128"
target triple = "x86_64-pc-linux-gnu"

%"class.Eigen::Matrix" = type { %"class.Eigen::PlainObjectBase" }
%"class.Eigen::PlainObjectBase" = type { %"class.Eigen::DenseStorage" }
%"class.Eigen::DenseStorage" = type { ptr, i64, i64 }
%"class.Eigen::Map" = type <{ %"class.Eigen::MapBase", [8 x i8] }>
%"class.Eigen::MapBase" = type { ptr, %"class.Eigen::internal::variable_if_dynamic", %"class.Eigen::internal::variable_if_dynamic" }
%"class.Eigen::internal::variable_if_dynamic" = type { i64 }
%"class.Eigen::Stride" = type { [2 x i8] }
%"class.open3d::pipelines::registration::Feature" = type { %"class.Eigen::Matrix" }

; Function Attrs: inlinehint mustprogress nounwind ssp uwtable
define linkonce_odr noundef i64 @_ZN5Eigen8internal19variable_if_dynamicIlLi0EE5valueEv() #4 comdat align 2 {
  ret i64 0
}

; Function Attrs: mustprogress nounwind ssp uwtable
define linkonce_odr void @_ZN5Eigen9DenseBaseINS_3MapIKNS_6MatrixIdLin1ELin1ELi0ELin1ELin1EEELi0ENS_6StrideILi0ELi0EEEEEEC2Ev(ptr noundef nonnull align 1 dereferenceable(1) %0) unnamed_addr #1 comdat align 2 {
  %2 = alloca ptr, align 8
  store ptr %0, ptr %2, align 8, !tbaa !332
  ret void
}

; Function Attrs: inlinehint mustprogress nounwind ssp uwtable
define linkonce_odr noundef i64 @_ZNK5Eigen6StrideILi0ELi0EE5innerEv(ptr noundef nonnull align 1 dereferenceable(2) %0) #4 comdat align 2 {
  %2 = alloca ptr, align 8
  store ptr %0, ptr %2, align 8, !tbaa !318
  %3 = call noundef i64 @_ZN5Eigen8internal19variable_if_dynamicIlLi0EE5valueEv()
  ret i64 %3
}

; Function Attrs: inlinehint mustprogress ssp uwtable
define linkonce_odr noundef i64 @_ZNK5Eigen6StrideILi0ELi0EE5outerEv(ptr noundef nonnull align 1 dereferenceable(2) %0) #6 comdat align 2 {
  %2 = alloca ptr, align 8
  store ptr %0, ptr %2, align 8, !tbaa !318
  %3 = call noundef i64 @_ZN5Eigen8internal19variable_if_dynamicIlLi0EE5valueEv()
  ret i64 %3
}

; Function Attrs: mustprogress nounwind ssp uwtable
define linkonce_odr void @_ZNK5Eigen7MapBaseINS_3MapIKNS_6MatrixIdLin1ELin1ELi0ELin1ELin1EEELi0ENS_6StrideILi0ELi0EEEEELi0EE11checkSanityIS7_EEvNS_8internal9enable_ifIXeqsr8internal6traitsIT_EE9AlignmentLi0EEPvE4typeE(ptr noundef nonnull align 8 dereferenceable(24) %0, ptr noundef %1) #1 comdat align 2 {
  %3 = alloca ptr, align 8
  %4 = alloca ptr, align 8
  store ptr %0, ptr %3, align 8, !tbaa !322
  store ptr %1, ptr %4, align 8, !tbaa !106
  ret void
}

; Function Attrs: inlinehint mustprogress nounwind ssp uwtable
define linkonce_odr void @_ZN5Eigen8internal19variable_if_dynamicIlLin1EEC2El(ptr noundef nonnull align 8 dereferenceable(8) %0, i64 noundef %1) unnamed_addr #4 comdat align 2 {
  %3 = alloca ptr, align 8
  %4 = alloca i64, align 8
  store ptr %0, ptr %3, align 8, !tbaa !329
  store i64 %1, ptr %4, align 8, !tbaa !60
  %5 = load ptr, ptr %3, align 8
  %6 = getelementptr inbounds nuw %"class.Eigen::internal::variable_if_dynamic", ptr %5, i32 0, i32 0
  %7 = load i64, ptr %4, align 8, !tbaa !60
  store i64 %7, ptr %6, align 8, !tbaa !331
  ret void
}

; Function Attrs: mustprogress ssp uwtable
define linkonce_odr void @_ZN5Eigen10MatrixBaseINS_3MapIKNS_6MatrixIdLin1ELin1ELi0ELin1ELin1EEELi0ENS_6StrideILi0ELi0EEEEEEC2Ev(ptr noundef nonnull align 1 dereferenceable(1) %0) unnamed_addr #3 comdat align 2 {
  %2 = alloca ptr, align 8
  store ptr %0, ptr %2, align 8, !tbaa !327
  %3 = load ptr, ptr %2, align 8
  call void @_ZN5Eigen9DenseBaseINS_3MapIKNS_6MatrixIdLin1ELin1ELi0ELin1ELin1EEELi0ENS_6StrideILi0ELi0EEEEEEC2Ev(ptr noundef nonnull align 1 dereferenceable(1) %3)
  ret void
}

; Function Attrs: inlinehint mustprogress nounwind ssp uwtable
define linkonce_odr void @_ZN5Eigen8internal22ignore_unused_variableIlEEvRKT_(ptr noundef nonnull align 8 dereferenceable(8) %0) #4 comdat {
  %2 = alloca ptr, align 8
  store ptr %0, ptr %2, align 8, !tbaa !77
  ret void
}

; Function Attrs: mustprogress ssp uwtable
define linkonce_odr void @_ZN5Eigen6StrideILi0ELi0EEC2ERKS1_(ptr noundef nonnull align 1 dereferenceable(2) %0, ptr noundef nonnull align 1 dereferenceable(2) %1) unnamed_addr #3 comdat align 2 {
  %3 = alloca ptr, align 8
  %4 = alloca ptr, align 8
  store ptr %0, ptr %3, align 8, !tbaa !318
  store ptr %1, ptr %4, align 8, !tbaa !318
  %5 = load ptr, ptr %3, align 8
  %6 = load ptr, ptr %4, align 8, !tbaa !318
  %7 = call noundef i64 @_ZNK5Eigen6StrideILi0ELi0EE5outerEv(ptr noundef nonnull align 1 dereferenceable(2) %6)
  call void @_ZN5Eigen8internal19variable_if_dynamicIlLi0EEC2El(ptr noundef nonnull align 1 dereferenceable(1) %5, i64 noundef %7)
  %8 = getelementptr inbounds i8, ptr %5, i64 1
  %9 = load ptr, ptr %4, align 8, !tbaa !318
  %10 = call noundef i64 @_ZNK5Eigen6StrideILi0ELi0EE5innerEv(ptr noundef nonnull align 1 dereferenceable(2) %9)
  call void @_ZN5Eigen8internal19variable_if_dynamicIlLi0EEC2El(ptr noundef nonnull align 1 dereferenceable(1) %8, i64 noundef %10)
  ret void
}

; Function Attrs: inlinehint mustprogress ssp uwtable
define linkonce_odr void @_ZN5Eigen7MapBaseINS_3MapIKNS_6MatrixIdLin1ELin1ELi0ELin1ELin1EEELi0ENS_6StrideILi0ELi0EEEEELi0EEC2EPKdll(ptr noundef nonnull align 8 dereferenceable(24) %0, ptr noundef %1, i64 noundef %2, i64 noundef %3) unnamed_addr #6 comdat align 2 {
  %5 = alloca ptr, align 8
  %6 = alloca ptr, align 8
  %7 = alloca i64, align 8
  %8 = alloca i64, align 8
  store ptr %0, ptr %5, align 8, !tbaa !322
  store ptr %1, ptr %6, align 8, !tbaa !76
  store i64 %2, ptr %7, align 8, !tbaa !60
  store i64 %3, ptr %8, align 8, !tbaa !60
  %9 = load ptr, ptr %5, align 8
  call void @_ZN5Eigen10MatrixBaseINS_3MapIKNS_6MatrixIdLin1ELin1ELi0ELin1ELin1EEELi0ENS_6StrideILi0ELi0EEEEEEC2Ev(ptr noundef nonnull align 1 dereferenceable(1) %9)
  %10 = getelementptr inbounds nuw %"class.Eigen::MapBase", ptr %9, i32 0, i32 0
  %11 = load ptr, ptr %6, align 8, !tbaa !76
  store ptr %11, ptr %10, align 8, !tbaa !324
  %12 = getelementptr inbounds nuw %"class.Eigen::MapBase", ptr %9, i32 0, i32 1
  %13 = load i64, ptr %7, align 8, !tbaa !60
  call void @_ZN5Eigen8internal19variable_if_dynamicIlLin1EEC2El(ptr noundef nonnull align 8 dereferenceable(8) %12, i64 noundef %13) #28
  %14 = getelementptr inbounds nuw %"class.Eigen::MapBase", ptr %9, i32 0, i32 2
  %15 = load i64, ptr %8, align 8, !tbaa !60
  call void @_ZN5Eigen8internal19variable_if_dynamicIlLin1EEC2El(ptr noundef nonnull align 8 dereferenceable(8) %14, i64 noundef %15) #28
  call void @_ZNK5Eigen7MapBaseINS_3MapIKNS_6MatrixIdLin1ELin1ELi0ELin1ELin1EEELi0ENS_6StrideILi0ELi0EEEEELi0EE11checkSanityIS7_EEvNS_8internal9enable_ifIXeqsr8internal6traitsIT_EE9AlignmentLi0EEPvE4typeE(ptr noundef nonnull align 8 dereferenceable(24) %9, ptr noundef null)
  ret void
}

; Function Attrs: inlinehint mustprogress nounwind ssp uwtable
define linkonce_odr noundef ptr @_ZN5Eigen3MapIKNS_6MatrixIdLin1ELin1ELi0ELin1ELin1EEELi0ENS_6StrideILi0ELi0EEEE20cast_to_pointer_typeEPKd(ptr noundef nonnull align 8 dereferenceable(26) %0, ptr noundef %1) #4 comdat align 2 {
  %3 = alloca ptr, align 8
  %4 = alloca ptr, align 8
  store ptr %0, ptr %3, align 8, !tbaa !316
  store ptr %1, ptr %4, align 8, !tbaa !76
  %5 = load ptr, ptr %4, align 8, !tbaa !76
  ret ptr %5
}

; Function Attrs: inlinehint mustprogress ssp uwtable
define linkonce_odr void @_ZN5Eigen8internal19variable_if_dynamicIlLi0EEC2El(ptr noundef nonnull align 1 dereferenceable(1) %0, i64 noundef %1) unnamed_addr #6 comdat align 2 {
  %3 = alloca ptr, align 8
  %4 = alloca i64, align 8
  store ptr %0, ptr %3, align 8, !tbaa !320
  store i64 %1, ptr %4, align 8, !tbaa !60
  call void @_ZN5Eigen8internal22ignore_unused_variableIlEEvRKT_(ptr noundef nonnull align 8 dereferenceable(8) %4)
  ret void
}

; Function Attrs: mustprogress nounwind ssp uwtable
define linkonce_odr noundef i64 @_ZNK5Eigen12DenseStorageIdLin1ELin1ELin1ELi0EE4colsEv(ptr noundef nonnull align 8 dereferenceable(24) %0) #1 comdat align 2 {
  %2 = alloca ptr, align 8
  store ptr %0, ptr %2, align 8, !tbaa !85
  %3 = load ptr, ptr %2, align 8
  %4 = getelementptr inbounds nuw %"class.Eigen::DenseStorage", ptr %3, i32 0, i32 2
  %5 = load i64, ptr %4, align 8, !tbaa !87
  ret i64 %5
}

; Function Attrs: mustprogress nounwind ssp uwtable
define linkonce_odr noundef i64 @_ZNK5Eigen12DenseStorageIdLin1ELin1ELin1ELi0EE4rowsEv(ptr noundef nonnull align 8 dereferenceable(24) %0) #1 comdat align 2 {
  %2 = alloca ptr, align 8
  store ptr %0, ptr %2, align 8, !tbaa !85
  %3 = load ptr, ptr %2, align 8
  %4 = getelementptr inbounds nuw %"class.Eigen::DenseStorage", ptr %3, i32 0, i32 1
  %5 = load i64, ptr %4, align 8, !tbaa !89
  ret i64 %5
}

; Function Attrs: mustprogress nounwind ssp uwtable
define linkonce_odr noundef ptr @_ZNK5Eigen12DenseStorageIdLin1ELin1ELin1ELi0EE4dataEv(ptr noundef nonnull align 8 dereferenceable(24) %0) #1 comdat align 2 {
  %2 = alloca ptr, align 8
  store ptr %0, ptr %2, align 8, !tbaa !85
  %3 = load ptr, ptr %2, align 8
  %4 = getelementptr inbounds nuw %"class.Eigen::DenseStorage", ptr %3, i32 0, i32 0
  %5 = load ptr, ptr %4, align 8, !tbaa !202
  ret ptr %5
}

; Function Attrs: inlinehint mustprogress ssp uwtable
define linkonce_odr void @_ZN5Eigen3MapIKNS_6MatrixIdLin1ELin1ELi0ELin1ELin1EEELi0ENS_6StrideILi0ELi0EEEEC2EPKdllRKS5_(ptr noundef nonnull align 8 dereferenceable(26) %0, ptr noundef %1, i64 noundef %2, i64 noundef %3, ptr noundef nonnull align 1 dereferenceable(2) %4) unnamed_addr #6 comdat align 2 {
  %6 = alloca ptr, align 8
  %7 = alloca ptr, align 8
  %8 = alloca i64, align 8
  %9 = alloca i64, align 8
  %10 = alloca ptr, align 8
  store ptr %0, ptr %6, align 8, !tbaa !316
  store ptr %1, ptr %7, align 8, !tbaa !76
  store i64 %2, ptr %8, align 8, !tbaa !60
  store i64 %3, ptr %9, align 8, !tbaa !60
  store ptr %4, ptr %10, align 8, !tbaa !318
  %11 = load ptr, ptr %6, align 8
  %12 = load ptr, ptr %7, align 8, !tbaa !76
  %13 = call noundef ptr @_ZN5Eigen3MapIKNS_6MatrixIdLin1ELin1ELi0ELin1ELin1EEELi0ENS_6StrideILi0ELi0EEEE20cast_to_pointer_typeEPKd(ptr noundef nonnull align 8 dereferenceable(26) %11, ptr noundef %12)
  %14 = load i64, ptr %8, align 8, !tbaa !60
  %15 = load i64, ptr %9, align 8, !tbaa !60
  call void @_ZN5Eigen7MapBaseINS_3MapIKNS_6MatrixIdLin1ELin1ELi0ELin1ELin1EEELi0ENS_6StrideILi0ELi0EEEEELi0EEC2EPKdll(ptr noundef nonnull align 8 dereferenceable(24) %11, ptr noundef %13, i64 noundef %14, i64 noundef %15)
  %16 = getelementptr inbounds i8, ptr %11, i64 24
  %17 = load ptr, ptr %10, align 8, !tbaa !318
  call void @_ZN5Eigen6StrideILi0ELi0EEC2ERKS1_(ptr noundef nonnull align 1 dereferenceable(2) %16, ptr noundef nonnull align 1 dereferenceable(2) %17)
  ret void
}

; Function Attrs: mustprogress ssp uwtable
define linkonce_odr void @_ZN5Eigen6StrideILi0ELi0EEC2Ev(ptr noundef nonnull align 1 dereferenceable(2) %0) unnamed_addr #3 comdat align 2 {
  %2 = alloca ptr, align 8
  store ptr %0, ptr %2, align 8, !tbaa !318
  %3 = load ptr, ptr %2, align 8
  call void @_ZN5Eigen8internal19variable_if_dynamicIlLi0EEC2El(ptr noundef nonnull align 1 dereferenceable(1) %3, i64 noundef 0)
  %4 = getelementptr inbounds i8, ptr %3, i64 1
  call void @_ZN5Eigen8internal19variable_if_dynamicIlLi0EEC2El(ptr noundef nonnull align 1 dereferenceable(1) %4, i64 noundef 0)
  ret void
}

; Function Attrs: inlinehint mustprogress nounwind ssp uwtable
define linkonce_odr noundef i64 @_ZNK5Eigen15PlainObjectBaseINS_6MatrixIdLin1ELin1ELi0ELin1ELin1EEEE4colsEv(ptr noundef nonnull align 8 dereferenceable(24) %0) #4 comdat align 2 {
  %2 = alloca ptr, align 8
  store ptr %0, ptr %2, align 8, !tbaa !58
  %3 = load ptr, ptr %2, align 8
  %4 = getelementptr inbounds nuw %"class.Eigen::PlainObjectBase", ptr %3, i32 0, i32 0
  %5 = call noundef i64 @_ZNK5Eigen12DenseStorageIdLin1ELin1ELin1ELi0EE4colsEv(ptr noundef nonnull align 8 dereferenceable(24) %4) #28
  ret i64 %5
}

; Function Attrs: inlinehint mustprogress nounwind ssp uwtable
define linkonce_odr noundef i64 @_ZNK5Eigen15PlainObjectBaseINS_6MatrixIdLin1ELin1ELi0ELin1ELin1EEEE4rowsEv(ptr noundef nonnull align 8 dereferenceable(24) %0) #4 comdat align 2 {
  %2 = alloca ptr, align 8
  store ptr %0, ptr %2, align 8, !tbaa !58
  %3 = load ptr, ptr %2, align 8
  %4 = getelementptr inbounds nuw %"class.Eigen::PlainObjectBase", ptr %3, i32 0, i32 0
  %5 = call noundef i64 @_ZNK5Eigen12DenseStorageIdLin1ELin1ELin1ELi0EE4rowsEv(ptr noundef nonnull align 8 dereferenceable(24) %4) #28
  ret i64 %5
}

; Function Attrs: inlinehint mustprogress nounwind ssp uwtable
define linkonce_odr noundef ptr @_ZNK5Eigen15PlainObjectBaseINS_6MatrixIdLin1ELin1ELi0ELin1ELin1EEEE4dataEv(ptr noundef nonnull align 8 dereferenceable(24) %0) #4 comdat align 2 {
  %2 = alloca ptr, align 8
  store ptr %0, ptr %2, align 8, !tbaa !58
  %3 = load ptr, ptr %2, align 8
  %4 = getelementptr inbounds nuw %"class.Eigen::PlainObjectBase", ptr %3, i32 0, i32 0
  %5 = call noundef ptr @_ZNK5Eigen12DenseStorageIdLin1ELin1ELin1ELi0EE4dataEv(ptr noundef nonnull align 8 dereferenceable(24) %4)
  ret ptr %5
}

; Function Attrs: mustprogress ssp uwtable
define noundef zeroext i1 @_ZN6open3d8geometry11KDTreeFlann13SetMatrixDataERKN5Eigen6MatrixIdLin1ELin1ELi0ELin1ELin1EEE(ptr noundef nonnull align 8 dereferenceable(32) %0, ptr noundef nonnull align 8 dereferenceable(24) %1) #3 align 2 {
  %3 = alloca ptr, align 8
  %4 = alloca ptr, align 8
  %5 = alloca %"class.Eigen::Map", align 8
  %6 = alloca %"class.Eigen::Stride", align 1
  store ptr %0, ptr %3, align 8, !tbaa !19
  store ptr %1, ptr %4, align 8, !tbaa !279
  %7 = load ptr, ptr %3, align 8
  call void @llvm.lifetime.start.p0(i64 32, ptr %5) #28
  %8 = load ptr, ptr %4, align 8, !tbaa !279
  %9 = call noundef ptr @_ZNK5Eigen15PlainObjectBaseINS_6MatrixIdLin1ELin1ELi0ELin1ELin1EEEE4dataEv(ptr noundef nonnull align 8 dereferenceable(24) %8)
  %10 = load ptr, ptr %4, align 8, !tbaa !279
  %11 = call noundef i64 @_ZNK5Eigen15PlainObjectBaseINS_6MatrixIdLin1ELin1ELi0ELin1ELin1EEEE4rowsEv(ptr noundef nonnull align 8 dereferenceable(24) %10) #28
  %12 = load ptr, ptr %4, align 8, !tbaa !279
  %13 = call noundef i64 @_ZNK5Eigen15PlainObjectBaseINS_6MatrixIdLin1ELin1ELi0ELin1ELin1EEEE4colsEv(ptr noundef nonnull align 8 dereferenceable(24) %12) #28
  call void @llvm.lifetime.start.p0(i64 2, ptr %6) #28
  call void @_ZN5Eigen6StrideILi0ELi0EEC2Ev(ptr noundef nonnull align 1 dereferenceable(2) %6)
  call void @_ZN5Eigen3MapIKNS_6MatrixIdLin1ELin1ELi0ELin1ELin1EEELi0ENS_6StrideILi0ELi0EEEEC2EPKdllRKS5_(ptr noundef nonnull align 8 dereferenceable(26) %5, ptr noundef %9, i64 noundef %11, i64 noundef %13, ptr noundef nonnull align 1 dereferenceable(2) %6)
  %14 = call noundef zeroext i1 @_ZN6open3d8geometry11KDTreeFlann10SetRawDataERKN5Eigen3MapIKNS2_6MatrixIdLin1ELin1ELi0ELin1ELin1EEELi0ENS2_6StrideILi0ELi0EEEEE(ptr noundef nonnull align 8 dereferenceable(32) %7, ptr noundef nonnull align 8 dereferenceable(26) %5)
  call void @llvm.lifetime.end.p0(i64 2, ptr %6) #28
  call void @llvm.lifetime.end.p0(i64 32, ptr %5) #28
  ret i1 %14
}

; Function Attrs: mustprogress ssp uwtable
define noundef zeroext i1 @_ZN6open3d8geometry11KDTreeFlann10SetFeatureERKNS_9pipelines12registration7FeatureE(ptr noundef nonnull align 8 dereferenceable(32) %0, ptr noundef nonnull align 8 dereferenceable(24) %1) #3 align 2 {
  %3 = alloca ptr, align 8
  %4 = alloca ptr, align 8
  store ptr %0, ptr %3, align 8, !tbaa !19
  store ptr %1, ptr %4, align 8, !tbaa !314
  %5 = load ptr, ptr %3, align 8
  %6 = load ptr, ptr %4, align 8, !tbaa !314
  %7 = getelementptr inbounds nuw %"class.open3d::pipelines::registration::Feature", ptr %6, i32 0, i32 0
  %8 = call noundef zeroext i1 @_ZN6open3d8geometry11KDTreeFlann13SetMatrixDataERKN5Eigen6MatrixIdLin1ELin1ELi0ELin1ELin1EEE(ptr noundef nonnull align 8 dereferenceable(32) %5, ptr noundef nonnull align 8 dereferenceable(24) %7)
  ret i1 %8
}