; Function Attrs: mustprogress ssp uwtable
define noundef zeroext i1 @_ZN6open3d8geometry11KDTreeFlann10SetFeatureERKNS_9pipelines12registration7FeatureE(ptr noundef nonnull align 8 dereferenceable(32) %0, ptr noundef nonnull readonly align 8 captures(none) dereferenceable(24) %1) local_unnamed_addr #1 align 2 {
  %3 = alloca %"class.Eigen::Map", align 8
  call void @llvm.lifetime.start.p0(i64 32, ptr nonnull %3) #30
  %4 = load ptr, ptr %1, align 8, !tbaa !102
  %5 = getelementptr inbounds nuw i8, ptr %1, i64 8
  %6 = load i64, ptr %5, align 8, !tbaa !18
  %7 = getelementptr inbounds nuw i8, ptr %1, i64 16
  %8 = load i64, ptr %7, align 8, !tbaa !23
  store ptr %4, ptr %3, align 8, !tbaa !124
  %9 = getelementptr inbounds nuw i8, ptr %3, i64 8
  store i64 %6, ptr %9, align 8, !tbaa !127
  %10 = getelementptr inbounds nuw i8, ptr %3, i64 16
  store i64 %8, ptr %10, align 8, !tbaa !127
  %11 = call noundef zeroext i1 @_ZN6open3d8geometry11KDTreeFlann10SetRawDataERKN5Eigen3MapIKNS2_6MatrixIdLin1ELin1ELi0ELin1ELin1EEELi0ENS2_6StrideILi0ELi0EEEEE(ptr noundef nonnull align 8 dereferenceable(32) %0, ptr noundef nonnull align 8 dereferenceable(26) %3)
  call void @llvm.lifetime.end.p0(i64 32, ptr nonnull %3) #30
  ret i1 %11
}